ccopy_reg
_reconstructor
p0
(cgoogle.oauth2.credentials
Credentials
p1
c__builtin__
object
p2
Ntp3
Rp4
(dp5
S'_token_uri'
p6
Vhttps://oauth2.googleapis.com/token
p7
sS'_client_secret'
p8
VAGcp3y2W7giRHQOaUY04N9Rx
p9
sS'_id_token'
p10
NsS'token'
p11
Vya29.GlvYBl0UG5QRlktoUhCjzi12jtgQNQitTX34WVtXreVr8da8aIxPl6G52UQabodYAW_YGLgI345wDVvvcVyB6ynSYLpT1QOZQoyRfBcWvsQoPlOOAVbf96802bRl
p12
sS'_refresh_token'
p13
V1/0X3Fm_k4sedDg1j82dl4CugB7PRvdHi1fkipqwN7R_xsi9TBDPaEmeqsRW6l9IDS
p14
sS'_scopes'
p15
(lp16
S'https://www.googleapis.com/auth/documents.readonly'
p17
asS'_client_id'
p18
V562349687271-0330tgr5l4gs756o8mgaul8o9sa54knr.apps.googleusercontent.com
p19
sS'expiry'
p20
cdatetime
datetime
p21
(S'\x07\xe3\x03\x1a\x02*\x00\t\x0ek'
p22
tp23
Rp24
sb.