ccopy_reg
_reconstructor
p0
(cgoogle.oauth2.credentials
Credentials
p1
c__builtin__
object
p2
Ntp3
Rp4
(dp5
S'_token_uri'
p6
Vhttps://oauth2.googleapis.com/token
p7
sS'_client_secret'
p8
Vws9Tl96MjGJkjmfe3IXkOKKA
p9
sS'_id_token'
p10
NsS'token'
p11
Vya29.GlvmBrJDXJ-72zbGwBus9da7qIB2ezSV6tDqvLWWzMsysB-zuR7dtTjuB_-DuUEEa2WcPiCeUuX2-bX0TZ_6FAXvuqlfv84V7apY7CXH84977M2s1sekiGyPaC-r
p12
sS'_refresh_token'
p13
V1/_7-brJNWHKgVUlcjbpr15kNWalJSsO5HTjIhbIH-PyA
p14
sS'_scopes'
p15
(lp16
S'https://www.googleapis.com/auth/documents'
p17
aS'https://www.googleapis.com/auth/drive'
p18
aS'https://www.googleapis.com/auth/drive.file'
p19
asS'_client_id'
p20
V562349687271-bthct81pimi703th8k7emkvod50ss4ni.apps.googleusercontent.com
p21
sS'expiry'
p22
cdatetime
datetime
p23
(S'\x07\xe3\x04\n\x11\x102\x04\xb4o'
p24
tp25
Rp26
sb.