ccopy_reg
_reconstructor
p0
(cgoogle.oauth2.credentials
Credentials
p1
c__builtin__
object
p2
Ntp3
Rp4
(dp5
S'_token_uri'
p6
Vhttps://oauth2.googleapis.com/token
p7
sS'_scopes'
p8
(lp9
S'https://www.googleapis.com/auth/documents'
p10
aS'https://www.googleapis.com/auth/drive'
p11
aS'https://www.googleapis.com/auth/drive.file'
p12
asS'_id_token'
p13
NsS'token'
p14
Vya29.GlzqBs2WuZPJEEbTonBhlaF6ii9YsdvGOiG--vCRxtlpGuBuhOE4p3cepCAGlOQ3cAil1bVXt4t7Z9RdH7smtzxx4gm7O05YHtS7rioyTeuStuzx9tPncdtW09P2Gg
p15
sS'_refresh_token'
p16
V1/_7-brJNWHKgVUlcjbpr15kNWalJSsO5HTjIhbIH-PyA
p17
sS'_client_secret'
p18
Vws9Tl96MjGJkjmfe3IXkOKKA
p19
sS'_client_id'
p20
V562349687271-bthct81pimi703th8k7emkvod50ss4ni.apps.googleusercontent.com
p21
sS'expiry'
p22
cdatetime
datetime
p23
(S'\x07\xe3\x04\r\x15\x0c\x19\x06x\xba'
p24
tp25
Rp26
sb.